target datalayout = "e-m:e-p270:32:32-p271:32:32-p272:64:64-i64:64-i128:128-f80:128-n8:16:32:64-S128"
target triple = "x86_64-unknown-linux-gnu"

%struct.BdrvDirtyBitmap = type { ptr, ptr, i8, ptr, ptr, i64, i8, i32, i8, i8, i8, i8, %struct.anon }
%struct.anon = type { ptr, ptr }
%struct.BlockDriverState = type { i32, i8, i8, i8, i8, i8, ptr, ptr, ptr, %struct.anon.0, i8, [4096 x i8], [4096 x i8], [4096 x i8], [16 x i8], ptr, [4096 x i8], %struct.BlockLimits, i32, i32, i32, i32, [32 x i8], %union.anon, %union.anon.1, %union.anon.2, i32, [16 x %struct.anon.3], ptr, %struct.anon.4, ptr, ptr, %struct.anon.5, ptr, ptr, i32, ptr, i64, i64, %struct.QemuMutex, %struct.anon.6, %struct.Stat64, i32, i32, i32, i32, i32, i32, %struct.QemuMutex, %struct.anon.7, %struct.CoQueue, i8, i32, i8, %struct.CoMutex, ptr, ptr }
%struct.anon.0 = type { ptr }
%struct.BlockLimits = type { i32, i64, i32, i64, i32, i32, i32, i64, i32, i64, i64, i32, i8, i32, i32, i32, i32, i32, i32, i32 }
%union.anon = type { %struct.QTailQLink }
%struct.QTailQLink = type { ptr, ptr }
%union.anon.1 = type { %struct.QTailQLink }
%union.anon.2 = type { %struct.QTailQLink }
%struct.anon.3 = type { ptr }
%struct.anon.4 = type { ptr }
%struct.anon.5 = type { ptr }
%struct.anon.6 = type { ptr }
%struct.Stat64 = type { i64 }
%struct.QemuMutex = type { %union.pthread_mutex_t, i8 }
%union.pthread_mutex_t = type { %struct.__pthread_mutex_s }
%struct.__pthread_mutex_s = type { i32, i32, i32, i32, i32, i16, i16, %struct.__pthread_internal_list }
%struct.__pthread_internal_list = type { ptr, ptr }
%struct.anon.7 = type { ptr }
%struct.CoQueue = type { %struct.anon.8 }
%struct.anon.8 = type { ptr, ptr }
%struct.CoMutex = type { i32, ptr, %struct.anon.9, %struct.anon.9, i32, i32, ptr }
%struct.anon.9 = type { ptr }
%struct.BlockDirtyInfo = type { ptr, i64, i32, i8, i8, i8, i8, i8 }
%struct.BlockDirtyInfoList = type { ptr, ptr }

@.str.1 = private unnamed_addr constant [29 x i8] c"../qemu/block/dirty-bitmap.c\00", align 1
@__func__.bdrv_dirty_bitmaps_lock = private unnamed_addr constant [24 x i8] c"bdrv_dirty_bitmaps_lock\00", align 1
@qemu_mutex_lock_func = external global ptr, align 8

; Function Attrs: nounwind sspstrong uwtable
define internal void @bdrv_dirty_bitmaps_unlock(ptr noundef %bs) #0 {
entry:
  %bs.addr = alloca ptr, align 8
  store ptr %bs, ptr %bs.addr, align 8
  %0 = load ptr, ptr %bs.addr, align 8
  %dirty_bitmap_mutex = getelementptr inbounds %struct.BlockDriverState, ptr %0, i32 0, i32 39
  call void @qemu_mutex_unlock_impl(ptr noundef %dirty_bitmap_mutex, ptr noundef @.str.1, i32 noundef 71)
  ret void
}

; Function Attrs: nounwind sspstrong uwtable
define internal zeroext i1 @bdrv_dirty_bitmap_busy(ptr noundef %bitmap) #0 {
entry:
  %bitmap.addr = alloca ptr, align 8
  store ptr %bitmap, ptr %bitmap.addr, align 8
  %0 = load ptr, ptr %bitmap.addr, align 8
  %busy = getelementptr inbounds %struct.BdrvDirtyBitmap, ptr %0, i32 0, i32 2
  %1 = load i8, ptr %busy, align 8
  %tobool = trunc i8 %1 to i1
  ret i1 %tobool
}

; Function Attrs: nounwind sspstrong uwtable
define internal zeroext i1 @bdrv_dirty_bitmap_recording(ptr noundef %bitmap) #0 {
entry:
  %bitmap.addr = alloca ptr, align 8
  store ptr %bitmap, ptr %bitmap.addr, align 8
  %0 = load ptr, ptr %bitmap.addr, align 8
  %disabled = getelementptr inbounds %struct.BdrvDirtyBitmap, ptr %0, i32 0, i32 6
  %1 = load i8, ptr %disabled, align 8
  %tobool = trunc i8 %1 to i1
  br i1 %tobool, label %lor.rhs, label %lor.end

lor.rhs:                                          ; preds = %entry
  %2 = load ptr, ptr %bitmap.addr, align 8
  %successor = getelementptr inbounds %struct.BdrvDirtyBitmap, ptr %2, i32 0, i32 3
  %3 = load ptr, ptr %successor, align 8
  %tobool1 = icmp ne ptr %3, null
  br i1 %tobool1, label %land.rhs, label %land.end

land.rhs:                                         ; preds = %lor.rhs
  %4 = load ptr, ptr %bitmap.addr, align 8
  %successor2 = getelementptr inbounds %struct.BdrvDirtyBitmap, ptr %4, i32 0, i32 3
  %5 = load ptr, ptr %successor2, align 8
  %disabled3 = getelementptr inbounds %struct.BdrvDirtyBitmap, ptr %5, i32 0, i32 6
  %6 = load i8, ptr %disabled3, align 8
  %tobool4 = trunc i8 %6 to i1
  %lnot = xor i1 %tobool4, true
  br label %land.end

land.end:                                         ; preds = %land.rhs, %lor.rhs
  %7 = phi i1 [ false, %lor.rhs ], [ %lnot, %land.rhs ]
  br label %lor.end

lor.end:                                          ; preds = %land.end, %entry
  %8 = phi i1 [ true, %entry ], [ %7, %land.end ]
  ret i1 %8
}

; Function Attrs: nounwind sspstrong uwtable
define dso_local i32 @bdrv_dirty_bitmap_granularity(ptr noundef %bitmap) #0 {
entry:
  %bitmap.addr = alloca ptr, align 8
  store ptr %bitmap, ptr %bitmap.addr, align 8
  %0 = load ptr, ptr %bitmap.addr, align 8
  %bitmap1 = getelementptr inbounds %struct.BdrvDirtyBitmap, ptr %0, i32 0, i32 1
  %1 = load ptr, ptr %bitmap1, align 8
  %call = call i32 @hbitmap_granularity(ptr noundef %1)
  %shl = shl i32 1, %call
  ret i32 %shl
}

; Function Attrs: nounwind sspstrong uwtable
define dso_local i64 @bdrv_get_dirty_count(ptr noundef %bitmap) #0 {
entry:
  %bitmap.addr = alloca ptr, align 8
  store ptr %bitmap, ptr %bitmap.addr, align 8
  %0 = load ptr, ptr %bitmap.addr, align 8
  %bitmap1 = getelementptr inbounds %struct.BdrvDirtyBitmap, ptr %0, i32 0, i32 1
  %1 = load ptr, ptr %bitmap1, align 8
  %call = call i64 @hbitmap_count(ptr noundef %1)
  ret i64 %call
}

; Function Attrs: nounwind sspstrong uwtable
define internal void @bdrv_dirty_bitmaps_lock(ptr noundef %bs) #0 {
entry:
  %bs.addr = alloca ptr, align 8
  %_f = alloca ptr, align 8
  %tmp = alloca ptr, align 8
  %atomic-temp = alloca ptr, align 8
  store ptr %bs, ptr %bs.addr, align 8
  br label %while.cond

while.cond:                                       ; preds = %do.end, %entry
  br i1 false, label %while.body, label %while.end

while.body:                                       ; preds = %while.cond
  br label %do.body

do.body:                                          ; preds = %while.body
  call void @g_assertion_message_expr(ptr noundef null, ptr noundef @.str.1, i32 noundef 66, ptr noundef @__func__.bdrv_dirty_bitmaps_lock, ptr noundef null) #10
  unreachable

do.end:                                           ; No predecessors!
  br label %while.cond

while.end:                                        ; preds = %while.cond
  %0 = load atomic i64, ptr @qemu_mutex_lock_func monotonic, align 8
  store i64 %0, ptr %atomic-temp, align 8
  %1 = load ptr, ptr %atomic-temp, align 8
  store ptr %1, ptr %tmp, align 8
  %2 = load ptr, ptr %tmp, align 8
  store ptr %2, ptr %_f, align 8
  %3 = load ptr, ptr %_f, align 8
  %4 = load ptr, ptr %bs.addr, align 8
  %dirty_bitmap_mutex = getelementptr inbounds %struct.BlockDriverState, ptr %4, i32 0, i32 39
  call void %3(ptr noundef %dirty_bitmap_mutex, ptr noundef @.str.1, i32 noundef 66)
  ret void
}

; Function Attrs: nounwind sspstrong uwtable
define dso_local ptr @bdrv_query_dirty_bitmaps(ptr noundef %bs) #0 {
entry:
  %bs.addr = alloca ptr, align 8
  %bm = alloca ptr, align 8
  %list = alloca ptr, align 8
  %tail = alloca ptr, align 8
  %info = alloca ptr, align 8
  store ptr %bs, ptr %bs.addr, align 8
  store ptr null, ptr %list, align 8
  store ptr %list, ptr %tail, align 8
  %0 = load ptr, ptr %bs.addr, align 8
  call void @bdrv_dirty_bitmaps_lock(ptr noundef %0)
  %1 = load ptr, ptr %bs.addr, align 8
  %dirty_bitmaps = getelementptr inbounds %struct.BlockDriverState, ptr %1, i32 0, i32 40
  %lh_first = getelementptr inbounds %struct.anon.6, ptr %dirty_bitmaps, i32 0, i32 0
  %2 = load ptr, ptr %lh_first, align 8
  store ptr %2, ptr %bm, align 8
  br label %for.cond

for.cond:                                         ; preds = %for.inc, %entry
  %3 = load ptr, ptr %bm, align 8
  %tobool = icmp ne ptr %3, null
  br i1 %tobool, label %for.body, label %for.end

for.body:                                         ; preds = %for.cond
  %call = call noalias ptr @g_malloc0_n(i64 noundef 1, i64 noundef 32) #14
  store ptr %call, ptr %info, align 8
  %4 = load ptr, ptr %bm, align 8
  %call1 = call i64 @bdrv_get_dirty_count(ptr noundef %4)
  %5 = load ptr, ptr %info, align 8
  %count = getelementptr inbounds %struct.BlockDirtyInfo, ptr %5, i32 0, i32 1
  store i64 %call1, ptr %count, align 8
  %6 = load ptr, ptr %bm, align 8
  %call2 = call i32 @bdrv_dirty_bitmap_granularity(ptr noundef %6)
  %7 = load ptr, ptr %info, align 8
  %granularity = getelementptr inbounds %struct.BlockDirtyInfo, ptr %7, i32 0, i32 2
  store i32 %call2, ptr %granularity, align 8
  %8 = load ptr, ptr %bm, align 8
  %name = getelementptr inbounds %struct.BdrvDirtyBitmap, ptr %8, i32 0, i32 4
  %9 = load ptr, ptr %name, align 8
  %call3 = call noalias ptr @g_strdup(ptr noundef %9)
  %10 = load ptr, ptr %info, align 8
  %name4 = getelementptr inbounds %struct.BlockDirtyInfo, ptr %10, i32 0, i32 0
  store ptr %call3, ptr %name4, align 8
  %11 = load ptr, ptr %bm, align 8
  %call5 = call zeroext i1 @bdrv_dirty_bitmap_recording(ptr noundef %11)
  %12 = load ptr, ptr %info, align 8
  %recording = getelementptr inbounds %struct.BlockDirtyInfo, ptr %12, i32 0, i32 3
  %frombool = zext i1 %call5 to i8
  store i8 %frombool, ptr %recording, align 4
  %13 = load ptr, ptr %bm, align 8
  %call6 = call zeroext i1 @bdrv_dirty_bitmap_busy(ptr noundef %13)
  %14 = load ptr, ptr %info, align 8
  %busy = getelementptr inbounds %struct.BlockDirtyInfo, ptr %14, i32 0, i32 4
  %frombool7 = zext i1 %call6 to i8
  store i8 %frombool7, ptr %busy, align 1
  %15 = load ptr, ptr %bm, align 8
  %persistent = getelementptr inbounds %struct.BdrvDirtyBitmap, ptr %15, i32 0, i32 9
  %16 = load i8, ptr %persistent, align 1
  %tobool8 = trunc i8 %16 to i1
  %17 = load ptr, ptr %info, align 8
  %persistent9 = getelementptr inbounds %struct.BlockDirtyInfo, ptr %17, i32 0, i32 5
  %frombool10 = zext i1 %tobool8 to i8
  store i8 %frombool10, ptr %persistent9, align 2
  %18 = load ptr, ptr %bm, align 8
  %inconsistent = getelementptr inbounds %struct.BdrvDirtyBitmap, ptr %18, i32 0, i32 10
  %19 = load i8, ptr %inconsistent, align 2
  %tobool11 = trunc i8 %19 to i1
  %20 = load ptr, ptr %info, align 8
  %has_inconsistent = getelementptr inbounds %struct.BlockDirtyInfo, ptr %20, i32 0, i32 6
  %frombool12 = zext i1 %tobool11 to i8
  store i8 %frombool12, ptr %has_inconsistent, align 1
  %21 = load ptr, ptr %bm, align 8
  %inconsistent13 = getelementptr inbounds %struct.BdrvDirtyBitmap, ptr %21, i32 0, i32 10
  %22 = load i8, ptr %inconsistent13, align 2
  %tobool14 = trunc i8 %22 to i1
  %23 = load ptr, ptr %info, align 8
  %inconsistent15 = getelementptr inbounds %struct.BlockDirtyInfo, ptr %23, i32 0, i32 7
  %frombool16 = zext i1 %tobool14 to i8
  store i8 %frombool16, ptr %inconsistent15, align 8
  br label %do.body

do.body:                                          ; preds = %for.body
  %call17 = call noalias ptr @g_malloc0(i64 noundef 16) #15
  %24 = load ptr, ptr %tail, align 8
  store ptr %call17, ptr %24, align 8
  %25 = load ptr, ptr %info, align 8
  %26 = load ptr, ptr %tail, align 8
  %27 = load ptr, ptr %26, align 8
  %value = getelementptr inbounds %struct.BlockDirtyInfoList, ptr %27, i32 0, i32 1
  store ptr %25, ptr %value, align 8
  %28 = load ptr, ptr %tail, align 8
  %29 = load ptr, ptr %28, align 8
  %next = getelementptr inbounds %struct.BlockDirtyInfoList, ptr %29, i32 0, i32 0
  store ptr %next, ptr %tail, align 8
  br label %do.end

do.end:                                           ; preds = %do.body
  br label %for.inc

for.inc:                                          ; preds = %do.end
  %30 = load ptr, ptr %bm, align 8
  %list18 = getelementptr inbounds %struct.BdrvDirtyBitmap, ptr %30, i32 0, i32 12
  %le_next = getelementptr inbounds %struct.anon, ptr %list18, i32 0, i32 0
  %31 = load ptr, ptr %le_next, align 8
  store ptr %31, ptr %bm, align 8
  br label %for.cond, !llvm.loop !9

for.end:                                          ; preds = %for.cond
  %32 = load ptr, ptr %bs.addr, align 8
  call void @bdrv_dirty_bitmaps_unlock(ptr noundef %32)
  %33 = load ptr, ptr %list, align 8
  ret ptr %33
}