; Function Attrs: nounwind sspstrong uwtable
define dso_local ptr @bdrv_query_dirty_bitmaps(ptr noundef %bs) local_unnamed_addr #0 {
entry:
  %list = alloca ptr, align 8
  store ptr null, ptr %list, align 8
  %0 = load atomic i64, ptr @qemu_mutex_lock_func monotonic, align 8
  %1 = inttoptr i64 %0 to ptr
  %dirty_bitmap_mutex.i = getelementptr inbounds nuw i8, ptr %bs, i64 16904
  tail call void %1(ptr noundef nonnull %dirty_bitmap_mutex.i, ptr noundef nonnull @.str.1, i32 noundef 66) #14
  %dirty_bitmaps = getelementptr inbounds nuw i8, ptr %bs, i64 16952
  %bm.026 = load ptr, ptr %dirty_bitmaps, align 8
  %tobool.not27 = icmp eq ptr %bm.026, null
  br i1 %tobool.not27, label %for.end, label %for.body

for.body:                                         ; preds = %entry, %bdrv_dirty_bitmap_recording.exit
  %bm.029 = phi ptr [ %bm.0, %bdrv_dirty_bitmap_recording.exit ], [ %bm.026, %entry ]
  %tail.028 = phi ptr [ %13, %bdrv_dirty_bitmap_recording.exit ], [ %list, %entry ]
  %call = tail call noalias dereferenceable_or_null(32) ptr @g_malloc0_n(i64 noundef 1, i64 noundef 32) #18
  %bitmap1.i = getelementptr inbounds nuw i8, ptr %bm.029, i64 8
  %2 = load ptr, ptr %bitmap1.i, align 8
  %call.i = tail call i64 @hbitmap_count(ptr noundef %2) #14
  %count = getelementptr inbounds nuw i8, ptr %call, i64 8
  store i64 %call.i, ptr %count, align 8
  %3 = load ptr, ptr %bitmap1.i, align 8
  %call.i23 = tail call i32 @hbitmap_granularity(ptr noundef %3) #14
  %shl.i = shl nuw i32 1, %call.i23
  %granularity = getelementptr inbounds nuw i8, ptr %call, i64 16
  store i32 %shl.i, ptr %granularity, align 8
  %name = getelementptr inbounds nuw i8, ptr %bm.029, i64 32
  %4 = load ptr, ptr %name, align 8
  %call3 = tail call noalias ptr @g_strdup(ptr noundef %4) #14
  store ptr %call3, ptr %call, align 8
  %disabled.i = getelementptr inbounds nuw i8, ptr %bm.029, i64 48
  %5 = load i8, ptr %disabled.i, align 8
  %tobool.i = trunc i8 %5 to i1
  br i1 %tobool.i, label %lor.rhs.i, label %bdrv_dirty_bitmap_recording.exit

lor.rhs.i:                                        ; preds = %for.body
  %successor.i = getelementptr inbounds nuw i8, ptr %bm.029, i64 24
  %6 = load ptr, ptr %successor.i, align 8
  %tobool1.not.i = icmp eq ptr %6, null
  br i1 %tobool1.not.i, label %bdrv_dirty_bitmap_recording.exit, label %land.rhs.i

land.rhs.i:                                       ; preds = %lor.rhs.i
  %disabled3.i = getelementptr inbounds nuw i8, ptr %6, i64 48
  %7 = load i8, ptr %disabled3.i, align 8
  %lnot.i = and i8 %7, 1
  %8 = xor i8 %lnot.i, 1
  br label %bdrv_dirty_bitmap_recording.exit

bdrv_dirty_bitmap_recording.exit:                 ; preds = %for.body, %lor.rhs.i, %land.rhs.i
  %frombool = phi i8 [ 1, %for.body ], [ 0, %lor.rhs.i ], [ %8, %land.rhs.i ]
  %recording = getelementptr inbounds nuw i8, ptr %call, i64 20
  store i8 %frombool, ptr %recording, align 4
  %9 = getelementptr i8, ptr %bm.029, i64 16
  %bm.0.val = load i8, ptr %9, align 8
  %busy = getelementptr inbounds nuw i8, ptr %call, i64 21
  %frombool7 = and i8 %bm.0.val, 1
  store i8 %frombool7, ptr %busy, align 1
  %persistent = getelementptr inbounds nuw i8, ptr %bm.029, i64 57
  %10 = load i8, ptr %persistent, align 1
  %persistent9 = getelementptr inbounds nuw i8, ptr %call, i64 22
  %frombool10 = and i8 %10, 1
  store i8 %frombool10, ptr %persistent9, align 2
  %inconsistent = getelementptr inbounds nuw i8, ptr %bm.029, i64 58
  %11 = load i8, ptr %inconsistent, align 2
  %has_inconsistent = getelementptr inbounds nuw i8, ptr %call, i64 23
  %frombool12 = and i8 %11, 1
  store i8 %frombool12, ptr %has_inconsistent, align 1
  %12 = load i8, ptr %inconsistent, align 2
  %inconsistent15 = getelementptr inbounds nuw i8, ptr %call, i64 24
  %frombool16 = and i8 %12, 1
  store i8 %frombool16, ptr %inconsistent15, align 8
  %call17 = tail call noalias dereferenceable_or_null(16) ptr @g_malloc0(i64 noundef 16) #19
  store ptr %call17, ptr %tail.028, align 8
  %value = getelementptr inbounds nuw i8, ptr %call17, i64 8
  store ptr %call, ptr %value, align 8
  %13 = load ptr, ptr %tail.028, align 8
  %list18 = getelementptr inbounds nuw i8, ptr %bm.029, i64 64
  %bm.0 = load ptr, ptr %list18, align 8
  %tobool.not = icmp eq ptr %bm.0, null
  br i1 %tobool.not, label %for.end.loopexit, label %for.body, !llvm.loop !9

for.end.loopexit:                                 ; preds = %bdrv_dirty_bitmap_recording.exit
  %list.0.list.0.list.0.list.0..pre = load ptr, ptr %list, align 8
  br label %for.end

for.end:                                          ; preds = %for.end.loopexit, %entry
  %list.0.list.0.list.0. = phi ptr [ %list.0.list.0.list.0.list.0..pre, %for.end.loopexit ], [ null, %entry ]
  tail call void @qemu_mutex_unlock_impl(ptr noundef nonnull %dirty_bitmap_mutex.i, ptr noundef nonnull @.str.1, i32 noundef 71) #14
  ret ptr %list.0.list.0.list.0.
}